; ModuleID = 'source-C-CXX/44/892.c'
source_filename = "source-C-CXX/44/892.c"
target datalayout = "e-m:e-p270:32:32-p271:32:32-p272:64:64-i64:64-f80:128-n8:16:32:64-S128"
target triple = "x86_64-pc-linux-gnu"

@.str = private unnamed_addr constant [6 x i8] c"%s %s\00", align 1
@.str.1 = private unnamed_addr constant [3 x i8] c"%d\00", align 1

; Function Attrs: nofree nounwind sspstrong uwtable
define dso_local i32 @main() local_unnamed_addr #0 {
  %1 = alloca [50 x i8], align 16
  %2 = alloca [50 x i8], align 16
  %3 = getelementptr inbounds [50 x i8], [50 x i8]* %2, i64 0, i64 0
  %4 = alloca [50 x i8], align 16
  %5 = getelementptr inbounds [50 x i8], [50 x i8]* %4, i64 0, i64 0
  %6 = getelementptr inbounds [50 x i8], [50 x i8]* %1, i64 0, i64 0
  call void @llvm.lifetime.start.p0i8(i64 50, i8* nonnull %6) #6
  %7 = getelementptr inbounds [50 x i8], [50 x i8]* %2, i64 0, i64 0
  call void @llvm.lifetime.start.p0i8(i64 50, i8* nonnull %7) #6
  %8 = getelementptr inbounds [50 x i8], [50 x i8]* %4, i64 0, i64 0
  call void @llvm.lifetime.start.p0i8(i64 50, i8* nonnull %8) #6
  %9 = call i32 (i8*, ...) @__isoc99_scanf(i8* getelementptr inbounds ([6 x i8], [6 x i8]* @.str, i64 0, i64 0), i8* nonnull %6, i8* nonnull %7)
  %10 = call i64 @strlen(i8* noundef nonnull %6) #7
  %11 = trunc i64 %10 to i32
  %12 = call i64 @strlen(i8* noundef nonnull %7) #7
  %13 = trunc i64 %12 to i32
  %14 = load i8, i8* %6, align 16
  %15 = icmp sgt i32 %11, 0
  %16 = icmp sgt i32 %13, 0
  br i1 %16, label %17, label %46

17:                                               ; preds = %0
  %18 = icmp eq i8 %14, 0
  br i1 %18, label %19, label %21

19:                                               ; preds = %17
  %20 = and i64 %12, 4294967295
  call void @llvm.memset.p0i8.i64(i8* nonnull align 16 %3, i8 0, i64 %20, i1 false)
  br label %46

21:                                               ; preds = %17
  br i1 %15, label %22, label %34

22:                                               ; preds = %21
  %23 = and i64 %10, 4294967295
  %24 = and i64 %12, 4294967295
  br label %25

25:                                               ; preds = %22, %31
  %26 = phi i64 [ 0, %22 ], [ %32, %31 ]
  %27 = getelementptr [50 x i8], [50 x i8]* %2, i64 0, i64 %26
  store i8 %14, i8* %27, align 1, !tbaa !5
  call void @llvm.memcpy.p0i8.p0i8.i64(i8* nonnull align 16 %5, i8* nonnull align 1 %27, i64 %23, i1 false)
  %28 = call i32 @strcmp(i8* noundef nonnull %8, i8* noundef nonnull %6) #7
  %29 = and i32 %28, 255
  %30 = icmp eq i32 %29, 0
  br i1 %30, label %41, label %31

31:                                               ; preds = %25
  %32 = add nuw nsw i64 %26, 1
  %33 = icmp eq i64 %32, %24
  br i1 %33, label %46, label %25, !llvm.loop !8

34:                                               ; preds = %21
  %35 = call i32 @strcmp(i8* noundef nonnull %8, i8* noundef nonnull %6) #7
  %36 = and i32 %35, 255
  %37 = icmp eq i32 %36, 0
  br i1 %37, label %40, label %38

38:                                               ; preds = %34
  %39 = and i64 %12, 4294967295
  call void @llvm.memset.p0i8.i64(i8* nonnull align 16 %3, i8 %14, i64 %39, i1 false)
  br label %46

40:                                               ; preds = %34
  store i8 %14, i8* %7, align 16, !tbaa !5
  br label %43

41:                                               ; preds = %25
  %42 = trunc i64 %26 to i32
  br label %43

43:                                               ; preds = %41, %40
  %44 = phi i32 [ 0, %40 ], [ %42, %41 ]
  %45 = call i32 (i8*, ...) @printf(i8* nonnull dereferenceable(1) getelementptr inbounds ([3 x i8], [3 x i8]* @.str.1, i64 0, i64 0), i32 %44)
  br label %46

46:                                               ; preds = %31, %38, %19, %0, %43
  call void @llvm.lifetime.end.p0i8(i64 50, i8* nonnull %8) #6
  call void @llvm.lifetime.end.p0i8(i64 50, i8* nonnull %7) #6
  call void @llvm.lifetime.end.p0i8(i64 50, i8* nonnull %6) #6
  ret i32 0
}

; Function Attrs: argmemonly mustprogress nofree nosync nounwind willreturn
declare void @llvm.lifetime.start.p0i8(i64 immarg, i8* nocapture) #1

; Function Attrs: nofree nounwind
declare noundef i32 @__isoc99_scanf(i8* nocapture noundef readonly, ...) local_unnamed_addr #2

; Function Attrs: argmemonly mustprogress nofree nounwind readonly willreturn
declare i64 @strlen(i8* nocapture) local_unnamed_addr #3

; Function Attrs: argmemonly mustprogress nofree nounwind readonly willreturn
declare i32 @strcmp(i8* nocapture, i8* nocapture) local_unnamed_addr #3

; Function Attrs: nofree nounwind
declare noundef i32 @printf(i8* nocapture noundef readonly, ...) local_unnamed_addr #2

; Function Attrs: argmemonly mustprogress nofree nosync nounwind willreturn
declare void @llvm.lifetime.end.p0i8(i64 immarg, i8* nocapture) #1

; Function Attrs: argmemonly nofree nounwind willreturn writeonly
declare void @llvm.memset.p0i8.i64(i8* nocapture writeonly, i8, i64, i1 immarg) #4

; Function Attrs: argmemonly nofree nounwind willreturn
declare void @llvm.memcpy.p0i8.p0i8.i64(i8* noalias nocapture writeonly, i8* noalias nocapture readonly, i64, i1 immarg) #5


!llvm.module.flags = !{!0, !1, !2, !3}
!llvm.ident = !{!4}

!0 = !{i32 1, !"wchar_size", i32 4}
!1 = !{i32 7, !"PIC Level", i32 2}
!2 = !{i32 7, !"PIE Level", i32 2}
!3 = !{i32 7, !"uwtable", i32 1}
!4 = !{!"clang version 13.0.0"}
!5 = !{!6, !6, i64 0}
!6 = !{!"omnipotent char", !7, i64 0}
!7 = !{!"Simple C/C++ TBAA"}
!8 = distinct !{!8, !9}
!9 = !{!"llvm.loop.mustprogress"}
